target datalayout = "e-m:e-p270:32:32-p271:32:32-p272:64:64-i64:64-i128:128-f80:128-n8:16:32:64-S128"
target triple = "x86_64-pc-linux-gnu"

%struct.IDAMemRec = type { ptr, double, ptr, ptr, i32, double, double, ptr, i32, i32, ptr, ptr, i32, i32, i32, ptr, ptr, i32, i32, double, double, ptr, i32, i32, i32, i32, ptr, ptr, i32, ptr, ptr, ptr, i32, double, i32, i32, double, ptr, ptr, ptr, i32, ptr, ptr, i32, i32, i32, double, ptr, ptr, ptr, [6 x ptr], [6 x double], [6 x double], [6 x double], [6 x double], [6 x double], ptr, ptr, ptr, ptr, ptr, ptr, ptr, ptr, ptr, ptr, ptr, ptr, ptr, ptr, ptr, ptr, ptr, [6 x ptr], ptr, ptr, ptr, ptr, [6 x ptr], ptr, ptr, ptr, ptr, ptr, ptr, ptr, ptr, ptr, ptr, ptr, ptr, ptr, ptr, ptr, ptr, [6 x ptr], ptr, ptr, ptr, ptr, ptr, double, ptr, ptr, i32, i32, i32, i32, i32, i32, i32, i32, double, double, double, i32, double, i32, i32, i32, i32, i32, double, double, double, double, double, double, double, double, double, double, double, double, double, double, double, double, double, i32, i32, i32, i32, i64, double, double, double, double, double, double, double, double, double, i64, i64, i64, i64, i64, i64, i64, i64, i64, i64, i64, i64, i64, i64, i64, i64, i64, i64, i64, i64, i64, i64, i64, i64, i64, i64, double, i32, i32, i32, i32, i32, i32, i32, i32, i32, i32, i32, i32, i32, ptr, i32, ptr, i32, ptr, i32, ptr, ptr, ptr, ptr, ptr, ptr, i32, i32, ptr, ptr, ptr, ptr, ptr, ptr, ptr, double, i32, i32, ptr, i32, ptr, ptr, double, double, double, ptr, ptr, ptr, double, double, i32, i32, i64, ptr, i32, ptr, [5 x double], ptr, ptr, i32, ptr, i32 }

@.str = private unnamed_addr constant [111 x i8] c"generated/home/dtcxzyw/WorkSpace/Projects/compilers/llvm-opt-benchmark/bench/sundials/sundials/src/idas/idas.c\00", align 1
@.str.3 = private unnamed_addr constant [24 x i8] c"ida_mem = NULL illegal.\00", align 1
@__func__.IDAComputeYpSens = private unnamed_addr constant [17 x i8] c"IDAComputeYpSens\00", align 1

; Function Attrs: nounwind uwtable
define i32 @IDAComputeYpSens(ptr noundef %0, ptr noundef %1, ptr noundef %2) #0 {
  %4 = alloca i32, align 4
  %5 = alloca ptr, align 8
  %6 = alloca ptr, align 8
  %7 = alloca ptr, align 8
  %8 = alloca ptr, align 8
  %9 = alloca i32, align 4
  store ptr %0, ptr %5, align 8, !tbaa !126
  store ptr %1, ptr %6, align 8, !tbaa !125
  store ptr %2, ptr %7, align 8, !tbaa !125
  call void @llvm.lifetime.start.p0(i64 8, ptr %8) #10
  %10 = load ptr, ptr %5, align 8, !tbaa !126
  %11 = icmp eq ptr %10, null
  br i1 %11, label %12, label %13

12:                                               ; preds = %3
  call void (ptr, i32, i32, ptr, ptr, ptr, ...) @IDAProcessError(ptr noundef null, i32 noundef -20, i32 noundef 4018, ptr noundef @__func__.IDAComputeYpSens, ptr noundef @.str, ptr noundef @.str.3)
  store i32 -20, ptr %4, align 4
  store i32 1, ptr %9, align 4
  br label %27

13:                                               ; preds = %3
  %14 = load ptr, ptr %5, align 8, !tbaa !126
  store ptr %14, ptr %8, align 8, !tbaa !8
  %15 = load ptr, ptr %8, align 8, !tbaa !8
  %16 = getelementptr inbounds nuw %struct.IDAMemRec, ptr %15, i32 0, i32 24
  %17 = load i32, ptr %16, align 8, !tbaa !203
  %18 = load ptr, ptr %8, align 8, !tbaa !8
  %19 = getelementptr inbounds nuw %struct.IDAMemRec, ptr %18, i32 0, i32 84
  %20 = load ptr, ptr %19, align 8, !tbaa !219
  %21 = load ptr, ptr %8, align 8, !tbaa !8
  %22 = getelementptr inbounds nuw %struct.IDAMemRec, ptr %21, i32 0, i32 129
  %23 = load double, ptr %22, align 8, !tbaa !252
  %24 = load ptr, ptr %6, align 8, !tbaa !125
  %25 = load ptr, ptr %7, align 8, !tbaa !125
  %26 = call i32 @N_VLinearSumVectorArray(i32 noundef %17, double noundef 1.000000e+00, ptr noundef %20, double noundef %23, ptr noundef %24, ptr noundef %25)
  store i32 0, ptr %4, align 4
  store i32 1, ptr %9, align 4
  br label %27

27:                                               ; preds = %13, %12
  call void @llvm.lifetime.end.p0(i64 8, ptr %8) #10
  %28 = load i32, ptr %4, align 4
  ret i32 %28
}