; Function Attrs: nounwind uwtable
define range(i32 -20, 1) i32 @IDAComputeYpSens(ptr noundef readonly captures(address_is_null) %0, ptr noundef %1, ptr noundef %2) local_unnamed_addr #0 {
  %4 = icmp eq ptr %0, null
  br i1 %4, label %5, label %6

5:                                                ; preds = %3
  tail call void (ptr, i32, i32, ptr, ptr, ptr, ...) @IDAProcessError(ptr noundef null, i32 noundef -20, i32 noundef 4018, ptr noundef nonnull @__func__.IDAComputeYpSens, ptr noundef nonnull @.str, ptr noundef nonnull @.str.3)
  br label %14

6:                                                ; preds = %3
  %7 = getelementptr inbounds nuw i8, ptr %0, i64 160
  %8 = load i32, ptr %7, align 8, !tbaa !167
  %9 = getelementptr inbounds nuw i8, ptr %0, i64 936
  %10 = load ptr, ptr %9, align 8, !tbaa !176
  %11 = getelementptr inbounds nuw i8, ptr %0, i64 1288
  %12 = load double, ptr %11, align 8, !tbaa !229
  %13 = tail call i32 @N_VLinearSumVectorArray(i32 noundef %8, double noundef 1.000000e+00, ptr noundef %10, double noundef %12, ptr noundef %1, ptr noundef %2) #14
  br label %14

14:                                               ; preds = %6, %5
  %.0 = phi i32 [ -20, %5 ], [ 0, %6 ]
  ret i32 %.0
}